target datalayout = "e-m:e-p270:32:32-p271:32:32-p272:64:64-i64:64-i128:128-f80:128-n8:16:32:64-S128"
target triple = "x86_64-pc-linux-gnu"

%struct.jpeg_compress_struct = type { ptr, ptr, ptr, ptr, i32, i32, ptr, i32, i32, i32, i32, double, i32, i32, i32, ptr, [4 x ptr], [4 x ptr], [4 x ptr], [16 x i8], [16 x i8], [16 x i8], i32, ptr, i32, i32, i32, i32, i32, i32, i32, i32, i32, i8, i8, i8, i16, i16, i32, i32, i32, i32, i32, i32, i32, [4 x ptr], i32, i32, i32, [10 x i32], i32, i32, i32, i32, ptr, ptr, ptr, ptr, ptr, ptr, ptr, ptr, ptr, ptr, i32 }
%struct.arith_entropy_encoder = type { %struct.jpeg_entropy_encoder, i64, i64, i64, i64, i32, i32, [4 x i32], [4 x i32], i32, i32, [16 x ptr], [16 x ptr], [4 x i8] }
%struct.jpeg_entropy_encoder = type { ptr, ptr, ptr, ptr }
%struct.jpeg_component_info = type { i32, i32, i32, i32, i32, i32, i32, i32, i32, i32, i32, i32, i32, i32, i32, i32, i32, i32, i32, ptr, ptr }

; Function Attrs: nounwind uwtable
define internal i32 @encode_mcu_DC_first(ptr noundef %0, ptr noundef %1) #0 {
  %3 = alloca ptr, align 8
  %4 = alloca ptr, align 8
  %5 = alloca ptr, align 8
  %6 = alloca ptr, align 8
  %7 = alloca ptr, align 8
  %8 = alloca i32, align 4
  %9 = alloca i32, align 4
  %10 = alloca i32, align 4
  %11 = alloca i32, align 4
  %12 = alloca i32, align 4
  %13 = alloca i32, align 4
  store ptr %0, ptr %3, align 8, !tbaa !3
  store ptr %1, ptr %4, align 8, !tbaa !71
  call void @llvm.lifetime.start.p0(i64 8, ptr %5) #3
  %14 = load ptr, ptr %3, align 8, !tbaa !3
  %15 = getelementptr inbounds nuw %struct.jpeg_compress_struct, ptr %14, i32 0, i32 62
  %16 = load ptr, ptr %15, align 8, !tbaa !30
  store ptr %16, ptr %5, align 8, !tbaa !29
  call void @llvm.lifetime.start.p0(i64 8, ptr %6) #3
  call void @llvm.lifetime.start.p0(i64 8, ptr %7) #3
  call void @llvm.lifetime.start.p0(i64 4, ptr %8) #3
  call void @llvm.lifetime.start.p0(i64 4, ptr %9) #3
  call void @llvm.lifetime.start.p0(i64 4, ptr %10) #3
  call void @llvm.lifetime.start.p0(i64 4, ptr %11) #3
  call void @llvm.lifetime.start.p0(i64 4, ptr %12) #3
  call void @llvm.lifetime.start.p0(i64 4, ptr %13) #3
  %17 = load ptr, ptr %3, align 8, !tbaa !3
  %18 = getelementptr inbounds nuw %struct.jpeg_compress_struct, ptr %17, i32 0, i32 30
  %19 = load i32, ptr %18, align 8, !tbaa !62
  %20 = icmp ne i32 %19, 0
  br i1 %20, label %21, label %49

21:                                               ; preds = %2
  %22 = load ptr, ptr %5, align 8, !tbaa !29
  %23 = getelementptr inbounds nuw %struct.arith_entropy_encoder, ptr %22, i32 0, i32 9
  %24 = load i32, ptr %23, align 8, !tbaa !63
  %25 = icmp eq i32 %24, 0
  br i1 %25, label %26, label %44

26:                                               ; preds = %21
  %27 = load ptr, ptr %3, align 8, !tbaa !3
  %28 = load ptr, ptr %5, align 8, !tbaa !29
  %29 = getelementptr inbounds nuw %struct.arith_entropy_encoder, ptr %28, i32 0, i32 10
  %30 = load i32, ptr %29, align 4, !tbaa !64
  call void @emit_restart(ptr noundef %27, i32 noundef %30)
  %31 = load ptr, ptr %3, align 8, !tbaa !3
  %32 = getelementptr inbounds nuw %struct.jpeg_compress_struct, ptr %31, i32 0, i32 30
  %33 = load i32, ptr %32, align 8, !tbaa !62
  %34 = load ptr, ptr %5, align 8, !tbaa !29
  %35 = getelementptr inbounds nuw %struct.arith_entropy_encoder, ptr %34, i32 0, i32 9
  store i32 %33, ptr %35, align 8, !tbaa !63
  %36 = load ptr, ptr %5, align 8, !tbaa !29
  %37 = getelementptr inbounds nuw %struct.arith_entropy_encoder, ptr %36, i32 0, i32 10
  %38 = load i32, ptr %37, align 4, !tbaa !64
  %39 = add nsw i32 %38, 1
  store i32 %39, ptr %37, align 4, !tbaa !64
  %40 = load ptr, ptr %5, align 8, !tbaa !29
  %41 = getelementptr inbounds nuw %struct.arith_entropy_encoder, ptr %40, i32 0, i32 10
  %42 = load i32, ptr %41, align 4, !tbaa !64
  %43 = and i32 %42, 7
  store i32 %43, ptr %41, align 4, !tbaa !64
  br label %44

44:                                               ; preds = %26, %21
  %45 = load ptr, ptr %5, align 8, !tbaa !29
  %46 = getelementptr inbounds nuw %struct.arith_entropy_encoder, ptr %45, i32 0, i32 9
  %47 = load i32, ptr %46, align 8, !tbaa !63
  %48 = add i32 %47, -1
  store i32 %48, ptr %46, align 8, !tbaa !63
  br label %49

49:                                               ; preds = %44, %2
  store i32 0, ptr %8, align 4, !tbaa !35
  br label %50

50:                                               ; preds = %239, %49
  %51 = load i32, ptr %8, align 4, !tbaa !35
  %52 = load ptr, ptr %3, align 8, !tbaa !3
  %53 = getelementptr inbounds nuw %struct.jpeg_compress_struct, ptr %52, i32 0, i32 48
  %54 = load i32, ptr %53, align 8, !tbaa !73
  %55 = icmp slt i32 %51, %54
  br i1 %55, label %56, label %242

56:                                               ; preds = %50
  %57 = load ptr, ptr %4, align 8, !tbaa !71
  %58 = load i32, ptr %8, align 4, !tbaa !35
  %59 = sext i32 %58 to i64
  %60 = getelementptr inbounds ptr, ptr %57, i64 %59
  %61 = load ptr, ptr %60, align 8, !tbaa !74
  store ptr %61, ptr %6, align 8, !tbaa !74
  %62 = load ptr, ptr %3, align 8, !tbaa !3
  %63 = getelementptr inbounds nuw %struct.jpeg_compress_struct, ptr %62, i32 0, i32 49
  %64 = load i32, ptr %8, align 4, !tbaa !35
  %65 = sext i32 %64 to i64
  %66 = getelementptr inbounds [10 x i32], ptr %63, i64 0, i64 %65
  %67 = load i32, ptr %66, align 4, !tbaa !35
  store i32 %67, ptr %9, align 4, !tbaa !35
  %68 = load ptr, ptr %3, align 8, !tbaa !3
  %69 = getelementptr inbounds nuw %struct.jpeg_compress_struct, ptr %68, i32 0, i32 45
  %70 = load i32, ptr %9, align 4, !tbaa !35
  %71 = sext i32 %70 to i64
  %72 = getelementptr inbounds [4 x ptr], ptr %69, i64 0, i64 %71
  %73 = load ptr, ptr %72, align 8, !tbaa !29
  %74 = getelementptr inbounds nuw %struct.jpeg_component_info, ptr %73, i32 0, i32 5
  %75 = load i32, ptr %74, align 4, !tbaa !51
  store i32 %75, ptr %10, align 4, !tbaa !35
  %76 = load ptr, ptr %6, align 8, !tbaa !74
  %77 = getelementptr inbounds [64 x i16], ptr %76, i64 0, i64 0
  %78 = load i16, ptr %77, align 2, !tbaa !76
  %79 = sext i16 %78 to i32
  %80 = load ptr, ptr %3, align 8, !tbaa !3
  %81 = getelementptr inbounds nuw %struct.jpeg_compress_struct, ptr %80, i32 0, i32 53
  %82 = load i32, ptr %81, align 8, !tbaa !77
  %83 = ashr i32 %79, %82
  store i32 %83, ptr %13, align 4, !tbaa !35
  %84 = load ptr, ptr %5, align 8, !tbaa !29
  %85 = getelementptr inbounds nuw %struct.arith_entropy_encoder, ptr %84, i32 0, i32 11
  %86 = load i32, ptr %10, align 4, !tbaa !35
  %87 = sext i32 %86 to i64
  %88 = getelementptr inbounds [16 x ptr], ptr %85, i64 0, i64 %87
  %89 = load ptr, ptr %88, align 8, !tbaa !36
  %90 = load ptr, ptr %5, align 8, !tbaa !29
  %91 = getelementptr inbounds nuw %struct.arith_entropy_encoder, ptr %90, i32 0, i32 8
  %92 = load i32, ptr %9, align 4, !tbaa !35
  %93 = sext i32 %92 to i64
  %94 = getelementptr inbounds [4 x i32], ptr %91, i64 0, i64 %93
  %95 = load i32, ptr %94, align 4, !tbaa !35
  %96 = sext i32 %95 to i64
  %97 = getelementptr inbounds i8, ptr %89, i64 %96
  store ptr %97, ptr %7, align 8, !tbaa !36
  %98 = load i32, ptr %13, align 4, !tbaa !35
  %99 = load ptr, ptr %5, align 8, !tbaa !29
  %100 = getelementptr inbounds nuw %struct.arith_entropy_encoder, ptr %99, i32 0, i32 7
  %101 = load i32, ptr %9, align 4, !tbaa !35
  %102 = sext i32 %101 to i64
  %103 = getelementptr inbounds [4 x i32], ptr %100, i64 0, i64 %102
  %104 = load i32, ptr %103, align 4, !tbaa !35
  %105 = sub nsw i32 %98, %104
  store i32 %105, ptr %11, align 4, !tbaa !35
  %106 = icmp eq i32 %105, 0
  br i1 %106, label %107, label %115

107:                                              ; preds = %56
  %108 = load ptr, ptr %3, align 8, !tbaa !3
  %109 = load ptr, ptr %7, align 8, !tbaa !36
  call void @arith_encode(ptr noundef %108, ptr noundef %109, i32 noundef 0)
  %110 = load ptr, ptr %5, align 8, !tbaa !29
  %111 = getelementptr inbounds nuw %struct.arith_entropy_encoder, ptr %110, i32 0, i32 8
  %112 = load i32, ptr %9, align 4, !tbaa !35
  %113 = sext i32 %112 to i64
  %114 = getelementptr inbounds [4 x i32], ptr %111, i64 0, i64 %113
  store i32 0, ptr %114, align 4, !tbaa !35
  br label %238

115:                                              ; preds = %56
  %116 = load i32, ptr %13, align 4, !tbaa !35
  %117 = load ptr, ptr %5, align 8, !tbaa !29
  %118 = getelementptr inbounds nuw %struct.arith_entropy_encoder, ptr %117, i32 0, i32 7
  %119 = load i32, ptr %9, align 4, !tbaa !35
  %120 = sext i32 %119 to i64
  %121 = getelementptr inbounds [4 x i32], ptr %118, i64 0, i64 %120
  store i32 %116, ptr %121, align 4, !tbaa !35
  %122 = load ptr, ptr %3, align 8, !tbaa !3
  %123 = load ptr, ptr %7, align 8, !tbaa !36
  call void @arith_encode(ptr noundef %122, ptr noundef %123, i32 noundef 1)
  %124 = load i32, ptr %11, align 4, !tbaa !35
  %125 = icmp sgt i32 %124, 0
  br i1 %125, label %126, label %137

126:                                              ; preds = %115
  %127 = load ptr, ptr %3, align 8, !tbaa !3
  %128 = load ptr, ptr %7, align 8, !tbaa !36
  %129 = getelementptr inbounds i8, ptr %128, i64 1
  call void @arith_encode(ptr noundef %127, ptr noundef %129, i32 noundef 0)
  %130 = load ptr, ptr %7, align 8, !tbaa !36
  %131 = getelementptr inbounds i8, ptr %130, i64 2
  store ptr %131, ptr %7, align 8, !tbaa !36
  %132 = load ptr, ptr %5, align 8, !tbaa !29
  %133 = getelementptr inbounds nuw %struct.arith_entropy_encoder, ptr %132, i32 0, i32 8
  %134 = load i32, ptr %9, align 4, !tbaa !35
  %135 = sext i32 %134 to i64
  %136 = getelementptr inbounds [4 x i32], ptr %133, i64 0, i64 %135
  store i32 4, ptr %136, align 4, !tbaa !35
  br label %150

137:                                              ; preds = %115
  %138 = load i32, ptr %11, align 4, !tbaa !35
  %139 = sub nsw i32 0, %138
  store i32 %139, ptr %11, align 4, !tbaa !35
  %140 = load ptr, ptr %3, align 8, !tbaa !3
  %141 = load ptr, ptr %7, align 8, !tbaa !36
  %142 = getelementptr inbounds i8, ptr %141, i64 1
  call void @arith_encode(ptr noundef %140, ptr noundef %142, i32 noundef 1)
  %143 = load ptr, ptr %7, align 8, !tbaa !36
  %144 = getelementptr inbounds i8, ptr %143, i64 3
  store ptr %144, ptr %7, align 8, !tbaa !36
  %145 = load ptr, ptr %5, align 8, !tbaa !29
  %146 = getelementptr inbounds nuw %struct.arith_entropy_encoder, ptr %145, i32 0, i32 8
  %147 = load i32, ptr %9, align 4, !tbaa !35
  %148 = sext i32 %147 to i64
  %149 = getelementptr inbounds [4 x i32], ptr %146, i64 0, i64 %148
  store i32 8, ptr %149, align 4, !tbaa !35
  br label %150

150:                                              ; preds = %137, %126
  store i32 0, ptr %13, align 4, !tbaa !35
  %151 = load i32, ptr %11, align 4, !tbaa !35
  %152 = sub nsw i32 %151, 1
  store i32 %152, ptr %11, align 4, !tbaa !35
  %153 = icmp ne i32 %152, 0
  br i1 %153, label %154, label %177

154:                                              ; preds = %150
  %155 = load ptr, ptr %3, align 8, !tbaa !3
  %156 = load ptr, ptr %7, align 8, !tbaa !36
  call void @arith_encode(ptr noundef %155, ptr noundef %156, i32 noundef 1)
  store i32 1, ptr %13, align 4, !tbaa !35
  %157 = load i32, ptr %11, align 4, !tbaa !35
  store i32 %157, ptr %12, align 4, !tbaa !35
  %158 = load ptr, ptr %5, align 8, !tbaa !29
  %159 = getelementptr inbounds nuw %struct.arith_entropy_encoder, ptr %158, i32 0, i32 11
  %160 = load i32, ptr %10, align 4, !tbaa !35
  %161 = sext i32 %160 to i64
  %162 = getelementptr inbounds [16 x ptr], ptr %159, i64 0, i64 %161
  %163 = load ptr, ptr %162, align 8, !tbaa !36
  %164 = getelementptr inbounds i8, ptr %163, i64 20
  store ptr %164, ptr %7, align 8, !tbaa !36
  br label %165

165:                                              ; preds = %169, %154
  %166 = load i32, ptr %12, align 4, !tbaa !35
  %167 = ashr i32 %166, 1
  store i32 %167, ptr %12, align 4, !tbaa !35
  %168 = icmp ne i32 %167, 0
  br i1 %168, label %169, label %176

169:                                              ; preds = %165
  %170 = load ptr, ptr %3, align 8, !tbaa !3
  %171 = load ptr, ptr %7, align 8, !tbaa !36
  call void @arith_encode(ptr noundef %170, ptr noundef %171, i32 noundef 1)
  %172 = load i32, ptr %13, align 4, !tbaa !35
  %173 = shl i32 %172, 1
  store i32 %173, ptr %13, align 4, !tbaa !35
  %174 = load ptr, ptr %7, align 8, !tbaa !36
  %175 = getelementptr inbounds i8, ptr %174, i64 1
  store ptr %175, ptr %7, align 8, !tbaa !36
  br label %165, !llvm.loop !78

176:                                              ; preds = %165
  br label %177

177:                                              ; preds = %176, %150
  %178 = load ptr, ptr %3, align 8, !tbaa !3
  %179 = load ptr, ptr %7, align 8, !tbaa !36
  call void @arith_encode(ptr noundef %178, ptr noundef %179, i32 noundef 0)
  %180 = load i32, ptr %13, align 4, !tbaa !35
  %181 = load ptr, ptr %3, align 8, !tbaa !3
  %182 = getelementptr inbounds nuw %struct.jpeg_compress_struct, ptr %181, i32 0, i32 19
  %183 = load i32, ptr %10, align 4, !tbaa !35
  %184 = sext i32 %183 to i64
  %185 = getelementptr inbounds [16 x i8], ptr %182, i64 0, i64 %184
  %186 = load i8, ptr %185, align 1, !tbaa !40
  %187 = zext i8 %186 to i32
  %188 = zext i32 %187 to i64
  %189 = shl i64 1, %188
  %190 = ashr i64 %189, 1
  %191 = trunc i64 %190 to i32
  %192 = icmp slt i32 %180, %191
  br i1 %192, label %193, label %199

193:                                              ; preds = %177
  %194 = load ptr, ptr %5, align 8, !tbaa !29
  %195 = getelementptr inbounds nuw %struct.arith_entropy_encoder, ptr %194, i32 0, i32 8
  %196 = load i32, ptr %9, align 4, !tbaa !35
  %197 = sext i32 %196 to i64
  %198 = getelementptr inbounds [4 x i32], ptr %195, i64 0, i64 %197
  store i32 0, ptr %198, align 4, !tbaa !35
  br label %222

199:                                              ; preds = %177
  %200 = load i32, ptr %13, align 4, !tbaa !35
  %201 = load ptr, ptr %3, align 8, !tbaa !3
  %202 = getelementptr inbounds nuw %struct.jpeg_compress_struct, ptr %201, i32 0, i32 20
  %203 = load i32, ptr %10, align 4, !tbaa !35
  %204 = sext i32 %203 to i64
  %205 = getelementptr inbounds [16 x i8], ptr %202, i64 0, i64 %204
  %206 = load i8, ptr %205, align 1, !tbaa !40
  %207 = zext i8 %206 to i32
  %208 = zext i32 %207 to i64
  %209 = shl i64 1, %208
  %210 = ashr i64 %209, 1
  %211 = trunc i64 %210 to i32
  %212 = icmp sgt i32 %200, %211
  br i1 %212, label %213, label %221

213:                                              ; preds = %199
  %214 = load ptr, ptr %5, align 8, !tbaa !29
  %215 = getelementptr inbounds nuw %struct.arith_entropy_encoder, ptr %214, i32 0, i32 8
  %216 = load i32, ptr %9, align 4, !tbaa !35
  %217 = sext i32 %216 to i64
  %218 = getelementptr inbounds [4 x i32], ptr %215, i64 0, i64 %217
  %219 = load i32, ptr %218, align 4, !tbaa !35
  %220 = add nsw i32 %219, 8
  store i32 %220, ptr %218, align 4, !tbaa !35
  br label %221

221:                                              ; preds = %213, %199
  br label %222

222:                                              ; preds = %221, %193
  %223 = load ptr, ptr %7, align 8, !tbaa !36
  %224 = getelementptr inbounds i8, ptr %223, i64 14
  store ptr %224, ptr %7, align 8, !tbaa !36
  br label %225

225:                                              ; preds = %229, %222
  %226 = load i32, ptr %13, align 4, !tbaa !35
  %227 = ashr i32 %226, 1
  store i32 %227, ptr %13, align 4, !tbaa !35
  %228 = icmp ne i32 %227, 0
  br i1 %228, label %229, label %237

229:                                              ; preds = %225
  %230 = load ptr, ptr %3, align 8, !tbaa !3
  %231 = load ptr, ptr %7, align 8, !tbaa !36
  %232 = load i32, ptr %13, align 4, !tbaa !35
  %233 = load i32, ptr %11, align 4, !tbaa !35
  %234 = and i32 %232, %233
  %235 = icmp ne i32 %234, 0
  %236 = select i1 %235, i32 1, i32 0
  call void @arith_encode(ptr noundef %230, ptr noundef %231, i32 noundef %236)
  br label %225, !llvm.loop !79

237:                                              ; preds = %225
  br label %238

238:                                              ; preds = %237, %107
  br label %239

239:                                              ; preds = %238
  %240 = load i32, ptr %8, align 4, !tbaa !35
  %241 = add nsw i32 %240, 1
  store i32 %241, ptr %8, align 4, !tbaa !35
  br label %50, !llvm.loop !80

242:                                              ; preds = %50
  call void @llvm.lifetime.end.p0(i64 4, ptr %13) #3
  call void @llvm.lifetime.end.p0(i64 4, ptr %12) #3
  call void @llvm.lifetime.end.p0(i64 4, ptr %11) #3
  call void @llvm.lifetime.end.p0(i64 4, ptr %10) #3
  call void @llvm.lifetime.end.p0(i64 4, ptr %9) #3
  call void @llvm.lifetime.end.p0(i64 4, ptr %8) #3
  call void @llvm.lifetime.end.p0(i64 8, ptr %7) #3
  call void @llvm.lifetime.end.p0(i64 8, ptr %6) #3
  call void @llvm.lifetime.end.p0(i64 8, ptr %5) #3
  ret i32 1
}