; Function Attrs: nounwind uwtable
define internal noundef i32 @encode_mcu_DC_first(ptr noundef %0, ptr noundef readonly captures(none) %1) #0 {
  %3 = getelementptr inbounds nuw i8, ptr %0, i64 496
  %4 = load ptr, ptr %3, align 8, !tbaa !27
  %5 = getelementptr inbounds nuw i8, ptr %0, i64 280
  %6 = load i32, ptr %5, align 8, !tbaa !57
  %.not = icmp eq i32 %6, 0
  br i1 %.not, label %21, label %7

7:                                                ; preds = %2
  %8 = getelementptr inbounds nuw i8, ptr %4, i64 104
  %9 = load i32, ptr %8, align 8, !tbaa !58
  %10 = icmp eq i32 %9, 0
  br i1 %10, label %11, label %18

11:                                               ; preds = %7
  %12 = getelementptr inbounds nuw i8, ptr %4, i64 108
  %13 = load i32, ptr %12, align 4, !tbaa !59
  tail call fastcc void @emit_restart(ptr noundef nonnull %0, i32 noundef %13)
  %14 = load i32, ptr %5, align 8, !tbaa !57
  %15 = load i32, ptr %12, align 4, !tbaa !59
  %16 = add nsw i32 %15, 1
  %17 = and i32 %16, 7
  store i32 %17, ptr %12, align 4, !tbaa !59
  br label %18

18:                                               ; preds = %11, %7
  %19 = phi i32 [ %14, %11 ], [ %9, %7 ]
  %20 = add i32 %19, -1
  store i32 %20, ptr %8, align 8, !tbaa !58
  br label %21

21:                                               ; preds = %18, %2
  %22 = getelementptr inbounds nuw i8, ptr %0, i64 368
  %23 = load i32, ptr %22, align 8, !tbaa !72
  %24 = icmp sgt i32 %23, 0
  br i1 %24, label %.lr.ph101, label %._crit_edge

.lr.ph101:                                        ; preds = %21
  %25 = getelementptr inbounds nuw i8, ptr %0, i64 372
  %26 = getelementptr inbounds nuw i8, ptr %0, i64 328
  %27 = getelementptr inbounds nuw i8, ptr %0, i64 424
  %28 = getelementptr inbounds nuw i8, ptr %4, i64 112
  %29 = getelementptr inbounds nuw i8, ptr %4, i64 88
  %30 = getelementptr inbounds nuw i8, ptr %4, i64 72
  %31 = getelementptr inbounds nuw i8, ptr %0, i64 192
  %32 = getelementptr inbounds nuw i8, ptr %0, i64 208
  br label %33

33:                                               ; preds = %.lr.ph101, %.loopexit
  %indvars.iv = phi i64 [ 0, %.lr.ph101 ], [ %indvars.iv.next, %.loopexit ]
  %34 = getelementptr inbounds nuw ptr, ptr %1, i64 %indvars.iv
  %35 = load ptr, ptr %34, align 8, !tbaa !73
  %36 = getelementptr inbounds nuw [10 x i32], ptr %25, i64 0, i64 %indvars.iv
  %37 = load i32, ptr %36, align 4, !tbaa !48
  %38 = sext i32 %37 to i64
  %39 = getelementptr inbounds [4 x ptr], ptr %26, i64 0, i64 %38
  %40 = load ptr, ptr %39, align 8, !tbaa !43
  %41 = getelementptr inbounds nuw i8, ptr %40, i64 20
  %42 = load i32, ptr %41, align 4, !tbaa !44
  %43 = load i16, ptr %35, align 2, !tbaa !75
  %44 = sext i16 %43 to i32
  %45 = load i32, ptr %27, align 8, !tbaa !76
  %46 = ashr i32 %44, %45
  %47 = sext i32 %42 to i64
  %48 = getelementptr inbounds [16 x ptr], ptr %28, i64 0, i64 %47
  %49 = load ptr, ptr %48, align 8, !tbaa !46
  %50 = getelementptr inbounds [4 x i32], ptr %29, i64 0, i64 %38
  %51 = load i32, ptr %50, align 4, !tbaa !48
  %52 = sext i32 %51 to i64
  %53 = getelementptr inbounds i8, ptr %49, i64 %52
  %54 = getelementptr inbounds [4 x i32], ptr %30, i64 0, i64 %38
  %55 = load i32, ptr %54, align 4, !tbaa !48
  %56 = sub nsw i32 %46, %55
  %57 = icmp eq i32 %56, 0
  br i1 %57, label %58, label %59

58:                                               ; preds = %33
  tail call fastcc void @arith_encode(ptr noundef nonnull %0, ptr noundef %53, i32 noundef 0)
  store i32 0, ptr %50, align 4, !tbaa !48
  br label %.loopexit

59:                                               ; preds = %33
  store i32 %46, ptr %54, align 4, !tbaa !48
  tail call fastcc void @arith_encode(ptr noundef nonnull %0, ptr noundef %53, i32 noundef 1)
  %60 = icmp sgt i32 %56, 0
  br i1 %60, label %63, label %61

61:                                               ; preds = %59
  %62 = sub nsw i32 0, %56
  br label %63

63:                                               ; preds = %59, %61
  %.sink106 = phi i32 [ 1, %61 ], [ 0, %59 ]
  %.sink = phi i64 [ 3, %61 ], [ 2, %59 ]
  %storemerge = phi i32 [ 8, %61 ], [ 4, %59 ]
  %.078 = phi i32 [ %62, %61 ], [ %56, %59 ]
  %64 = getelementptr inbounds nuw i8, ptr %53, i64 1
  tail call fastcc void @arith_encode(ptr noundef nonnull %0, ptr noundef nonnull %64, i32 noundef %.sink106)
  %65 = getelementptr inbounds nuw i8, ptr %53, i64 %.sink
  store i32 %storemerge, ptr %50, align 4, !tbaa !48
  %66 = add nsw i32 %.078, -1
  %.not87 = icmp eq i32 %66, 0
  br i1 %.not87, label %.loopexit91, label %67

67:                                               ; preds = %63
  tail call fastcc void @arith_encode(ptr noundef nonnull %0, ptr noundef nonnull %65, i32 noundef 1)
  %68 = load ptr, ptr %48, align 8, !tbaa !46
  %69 = getelementptr inbounds nuw i8, ptr %68, i64 20
  %.not8892 = icmp eq i32 %66, 1
  br i1 %.not8892, label %.loopexit91, label %.lr.ph

.lr.ph:                                           ; preds = %67, %.lr.ph
  %.195 = phi i32 [ %71, %.lr.ph ], [ 1, %67 ]
  %.07794 = phi i32 [ %70, %.lr.ph ], [ %66, %67 ]
  %.28193 = phi ptr [ %72, %.lr.ph ], [ %69, %67 ]
  %70 = lshr i32 %.07794, 1
  tail call fastcc void @arith_encode(ptr noundef nonnull %0, ptr noundef nonnull %.28193, i32 noundef 1)
  %71 = shl i32 %.195, 1
  %72 = getelementptr inbounds nuw i8, ptr %.28193, i64 1
  %.not88 = icmp ult i32 %.07794, 4
  br i1 %.not88, label %.loopexit91, label %.lr.ph, !llvm.loop !77

.loopexit91:                                      ; preds = %.lr.ph, %67, %63
  %.180 = phi ptr [ %65, %63 ], [ %69, %67 ], [ %72, %.lr.ph ]
  %.0 = phi i32 [ 0, %63 ], [ 1, %67 ], [ %71, %.lr.ph ]
  tail call fastcc void @arith_encode(ptr noundef nonnull %0, ptr noundef nonnull %.180, i32 noundef 0)
  %73 = getelementptr inbounds [16 x i8], ptr %31, i64 0, i64 %47
  %74 = load i8, ptr %73, align 1, !tbaa !32
  %75 = zext nneg i8 %74 to i64
  %76 = shl nuw i64 1, %75
  %77 = lshr i64 %76, 1
  %78 = trunc i64 %77 to i32
  %79 = icmp slt i32 %.0, %78
  br i1 %79, label %.sink.split, label %80

80:                                               ; preds = %.loopexit91
  %81 = getelementptr inbounds [16 x i8], ptr %32, i64 0, i64 %47
  %82 = load i8, ptr %81, align 1, !tbaa !32
  %83 = zext nneg i8 %82 to i64
  %84 = shl nuw i64 1, %83
  %85 = lshr i64 %84, 1
  %86 = trunc i64 %85 to i32
  %87 = icmp sgt i32 %.0, %86
  br i1 %87, label %88, label %91

88:                                               ; preds = %80
  %89 = load i32, ptr %50, align 4, !tbaa !48
  %90 = add nsw i32 %89, 8
  br label %.sink.split

.sink.split:                                      ; preds = %.loopexit91, %88
  %.sink107 = phi i32 [ %90, %88 ], [ 0, %.loopexit91 ]
  store i32 %.sink107, ptr %50, align 4, !tbaa !48
  br label %91

91:                                               ; preds = %.sink.split, %80
  %92 = getelementptr inbounds nuw i8, ptr %.180, i64 14
  %.not8997 = icmp ult i32 %.0, 2
  br i1 %.not8997, label %.loopexit, label %.lr.ph99

.lr.ph99:                                         ; preds = %91, %.lr.ph99
  %.298 = phi i32 [ %93, %.lr.ph99 ], [ %.0, %91 ]
  %93 = ashr i32 %.298, 1
  %94 = and i32 %93, %66
  %.not90 = icmp ne i32 %94, 0
  %95 = zext i1 %.not90 to i32
  tail call fastcc void @arith_encode(ptr noundef nonnull %0, ptr noundef nonnull %92, i32 noundef %95)
  %.not89 = icmp ult i32 %93, 2
  br i1 %.not89, label %.loopexit, label %.lr.ph99, !llvm.loop !78

.loopexit:                                        ; preds = %.lr.ph99, %91, %58
  %indvars.iv.next = add nuw nsw i64 %indvars.iv, 1
  %96 = load i32, ptr %22, align 8, !tbaa !72
  %97 = sext i32 %96 to i64
  %98 = icmp slt i64 %indvars.iv.next, %97
  br i1 %98, label %33, label %._crit_edge, !llvm.loop !79

._crit_edge:                                      ; preds = %.loopexit, %21
  ret i32 1
}